target datalayout = "e-m:e-p270:32:32-p271:32:32-p272:64:64-i64:64-i128:128-f80:128-n8:16:32:64-S128"
target triple = "x86_64-pc-linux-gnu"

%struct.mbedtls_ssl_context = type { ptr, i32, i32, i32, i32, i32, ptr, ptr, ptr, ptr, ptr, ptr, ptr, ptr, ptr, ptr, ptr, ptr, ptr, ptr, ptr, ptr, ptr, ptr, ptr, ptr, ptr, ptr, ptr, ptr, ptr, ptr, ptr, i32, i64, i64, i16, i64, i64, i64, i64, i32, i32, i8, i8, i32, i8, ptr, ptr, ptr, ptr, ptr, ptr, ptr, i32, i64, i64, [8 x i8], i16, ptr, ptr, ptr, i64, i32, i64, [12 x i8], [12 x i8], [32 x i8], i8, i8, ptr, ptr, %union.mbedtls_ssl_user_data_t }
%union.mbedtls_ssl_user_data_t = type { i64 }

@.str = private unnamed_addr constant [130 x i8] c"generated/home/dtcxzyw/WorkSpace/Projects/compilers/llvm-opt-benchmark/bench/lief/bench_build/mbed_src/library/ssl_tls12_client.c\00", align 1
@.str.63 = private unnamed_addr constant [32 x i8] c"non-matching renegotiation info\00", align 1
@.str.64 = private unnamed_addr constant [35 x i8] c"non-zero length renegotiation info\00", align 1

; Function Attrs: nounwind uwtable
define internal i32 @ssl_parse_renegotiation_info(ptr noundef %0, ptr noundef %1, i64 noundef %2) #0 {
  %4 = alloca i32, align 4
  %5 = alloca ptr, align 8
  %6 = alloca ptr, align 8
  %7 = alloca i64, align 8
  store ptr %0, ptr %5, align 8, !tbaa !3
  store ptr %1, ptr %6, align 8, !tbaa !8
  store i64 %2, ptr %7, align 8, !tbaa !14
  %8 = load ptr, ptr %5, align 8, !tbaa !3
  %9 = getelementptr inbounds nuw %struct.mbedtls_ssl_context, ptr %8, i32 0, i32 2
  %10 = load i32, ptr %9, align 4, !tbaa !16
  %11 = icmp ne i32 %10, 0
  br i1 %11, label %12, label %61

12:                                               ; preds = %3
  %13 = load i64, ptr %7, align 8, !tbaa !14
  %14 = load ptr, ptr %5, align 8, !tbaa !3
  %15 = getelementptr inbounds nuw %struct.mbedtls_ssl_context, ptr %14, i32 0, i32 64
  %16 = load i64, ptr %15, align 8, !tbaa !23
  %17 = mul i64 %16, 2
  %18 = add i64 1, %17
  %19 = icmp ne i64 %13, %18
  br i1 %19, label %56, label %20

20:                                               ; preds = %12
  %21 = load ptr, ptr %6, align 8, !tbaa !8
  %22 = getelementptr inbounds i8, ptr %21, i64 0
  %23 = load i8, ptr %22, align 1, !tbaa !24
  %24 = zext i8 %23 to i64
  %25 = load ptr, ptr %5, align 8, !tbaa !3
  %26 = getelementptr inbounds nuw %struct.mbedtls_ssl_context, ptr %25, i32 0, i32 64
  %27 = load i64, ptr %26, align 8, !tbaa !23
  %28 = mul i64 %27, 2
  %29 = icmp ne i64 %24, %28
  br i1 %29, label %56, label %30

30:                                               ; preds = %20
  %31 = load ptr, ptr %6, align 8, !tbaa !8
  %32 = getelementptr inbounds i8, ptr %31, i64 1
  %33 = load ptr, ptr %5, align 8, !tbaa !3
  %34 = getelementptr inbounds nuw %struct.mbedtls_ssl_context, ptr %33, i32 0, i32 65
  %35 = getelementptr inbounds [12 x i8], ptr %34, i64 0, i64 0
  %36 = load ptr, ptr %5, align 8, !tbaa !3
  %37 = getelementptr inbounds nuw %struct.mbedtls_ssl_context, ptr %36, i32 0, i32 64
  %38 = load i64, ptr %37, align 8, !tbaa !23
  %39 = call i32 @mbedtls_ct_memcmp(ptr noundef %32, ptr noundef %35, i64 noundef %38)
  %40 = icmp ne i32 %39, 0
  br i1 %40, label %56, label %41

41:                                               ; preds = %30
  %42 = load ptr, ptr %6, align 8, !tbaa !8
  %43 = getelementptr inbounds i8, ptr %42, i64 1
  %44 = load ptr, ptr %5, align 8, !tbaa !3
  %45 = getelementptr inbounds nuw %struct.mbedtls_ssl_context, ptr %44, i32 0, i32 64
  %46 = load i64, ptr %45, align 8, !tbaa !23
  %47 = getelementptr inbounds nuw i8, ptr %43, i64 %46
  %48 = load ptr, ptr %5, align 8, !tbaa !3
  %49 = getelementptr inbounds nuw %struct.mbedtls_ssl_context, ptr %48, i32 0, i32 66
  %50 = getelementptr inbounds [12 x i8], ptr %49, i64 0, i64 0
  %51 = load ptr, ptr %5, align 8, !tbaa !3
  %52 = getelementptr inbounds nuw %struct.mbedtls_ssl_context, ptr %51, i32 0, i32 64
  %53 = load i64, ptr %52, align 8, !tbaa !23
  %54 = call i32 @mbedtls_ct_memcmp(ptr noundef %47, ptr noundef %50, i64 noundef %53)
  %55 = icmp ne i32 %54, 0
  br i1 %55, label %56, label %60

56:                                               ; preds = %41, %30, %20, %12
  %57 = load ptr, ptr %5, align 8, !tbaa !3
  call void (ptr, i32, ptr, i32, ptr, ...) @mbedtls_debug_print_msg(ptr noundef %57, i32 noundef 1, ptr noundef @.str, i32 noundef 630, ptr noundef @.str.63)
  %58 = load ptr, ptr %5, align 8, !tbaa !3
  %59 = call i32 @mbedtls_ssl_send_alert_message(ptr noundef %58, i8 noundef zeroext 2, i8 noundef zeroext 40)
  store i32 -28160, ptr %4, align 4
  br label %78

60:                                               ; preds = %41
  br label %77

61:                                               ; preds = %3
  %62 = load i64, ptr %7, align 8, !tbaa !14
  %63 = icmp ne i64 %62, 1
  br i1 %63, label %70, label %64

64:                                               ; preds = %61
  %65 = load ptr, ptr %6, align 8, !tbaa !8
  %66 = getelementptr inbounds i8, ptr %65, i64 0
  %67 = load i8, ptr %66, align 1, !tbaa !24
  %68 = zext i8 %67 to i32
  %69 = icmp ne i32 %68, 0
  br i1 %69, label %70, label %74

70:                                               ; preds = %64, %61
  %71 = load ptr, ptr %5, align 8, !tbaa !3
  call void (ptr, i32, ptr, i32, ptr, ...) @mbedtls_debug_print_msg(ptr noundef %71, i32 noundef 1, ptr noundef @.str, i32 noundef 642, ptr noundef @.str.64)
  %72 = load ptr, ptr %5, align 8, !tbaa !3
  %73 = call i32 @mbedtls_ssl_send_alert_message(ptr noundef %72, i8 noundef zeroext 2, i8 noundef zeroext 40)
  store i32 -28160, ptr %4, align 4
  br label %78

74:                                               ; preds = %64
  %75 = load ptr, ptr %5, align 8, !tbaa !3
  %76 = getelementptr inbounds nuw %struct.mbedtls_ssl_context, ptr %75, i32 0, i32 63
  store i32 1, ptr %76, align 8, !tbaa !85
  br label %77

77:                                               ; preds = %74, %60
  store i32 0, ptr %4, align 4
  br label %78

78:                                               ; preds = %77, %70, %56
  %79 = load i32, ptr %4, align 4
  ret i32 %79
}