; Function Attrs: nounwind uwtable
define internal fastcc range(i32 -28160, 1) i32 @ssl_parse_renegotiation_info(ptr noundef %0, ptr noundef %1, i64 noundef range(i64 0, 65536) %2) unnamed_addr #0 {
  %4 = getelementptr inbounds nuw i8, ptr %0, i64 12
  %5 = load i32, ptr %4, align 4, !tbaa !7
  %.not = icmp eq i32 %5, 0
  br i1 %.not, label %25, label %6

6:                                                ; preds = %3
  %7 = getelementptr inbounds nuw i8, ptr %0, i64 472
  %8 = load i64, ptr %7, align 8, !tbaa !17
  %9 = shl i64 %8, 1
  %10 = or disjoint i64 %9, 1
  %.not21 = icmp eq i64 %2, %10
  br i1 %.not21, label %11, label %23

11:                                               ; preds = %6
  %12 = load i8, ptr %1, align 1, !tbaa !18
  %13 = zext i8 %12 to i64
  %.not22 = icmp eq i64 %9, %13
  br i1 %.not22, label %14, label %23

14:                                               ; preds = %11
  %15 = getelementptr inbounds nuw i8, ptr %1, i64 1
  %16 = getelementptr inbounds nuw i8, ptr %0, i64 480
  %17 = tail call i32 @mbedtls_ct_memcmp(ptr noundef nonnull %15, ptr noundef nonnull %16, i64 noundef %8) #14
  %.not23 = icmp eq i32 %17, 0
  br i1 %.not23, label %18, label %23

18:                                               ; preds = %14
  %19 = load i64, ptr %7, align 8, !tbaa !17
  %20 = getelementptr inbounds nuw i8, ptr %15, i64 %19
  %21 = getelementptr inbounds nuw i8, ptr %0, i64 492
  %22 = tail call i32 @mbedtls_ct_memcmp(ptr noundef nonnull %20, ptr noundef nonnull %21, i64 noundef %19) #14
  %.not24 = icmp eq i32 %22, 0
  br i1 %.not24, label %32, label %23

23:                                               ; preds = %18, %14, %11, %6
  tail call void (ptr, i32, ptr, i32, ptr, ...) @mbedtls_debug_print_msg(ptr noundef nonnull %0, i32 noundef 1, ptr noundef nonnull @.str, i32 noundef 630, ptr noundef nonnull @.str.63) #14
  %24 = tail call i32 @mbedtls_ssl_send_alert_message(ptr noundef nonnull %0, i8 noundef zeroext 2, i8 noundef zeroext 40) #14
  br label %32

25:                                               ; preds = %3
  %.not19 = icmp eq i64 %2, 1
  br i1 %.not19, label %26, label %28

26:                                               ; preds = %25
  %27 = load i8, ptr %1, align 1, !tbaa !18
  %.not20 = icmp eq i8 %27, 0
  br i1 %.not20, label %30, label %28

28:                                               ; preds = %26, %25
  tail call void (ptr, i32, ptr, i32, ptr, ...) @mbedtls_debug_print_msg(ptr noundef nonnull %0, i32 noundef 1, ptr noundef nonnull @.str, i32 noundef 642, ptr noundef nonnull @.str.64) #14
  %29 = tail call i32 @mbedtls_ssl_send_alert_message(ptr noundef nonnull %0, i8 noundef zeroext 2, i8 noundef zeroext 40) #14
  br label %32

30:                                               ; preds = %26
  %31 = getelementptr inbounds nuw i8, ptr %0, i64 464
  store i32 1, ptr %31, align 8, !tbaa !82
  br label %32

32:                                               ; preds = %30, %18, %28, %23
  %.0 = phi i32 [ -28160, %23 ], [ -28160, %28 ], [ 0, %18 ], [ 0, %30 ]
  ret i32 %.0
}